target datalayout = "e-m:e-p270:32:32-p271:32:32-p272:64:64-i64:64-i128:128-f80:128-n8:16:32:64-S128"
target triple = "x86_64-pc-linux-gnu"

%"class.llvm::yaml::IO" = type { ptr, ptr }
%"class.llvm::StringRef" = type { ptr, i64 }
%"class.llvm::SmallVectorBase" = type { ptr, i32, i32 }
%"class.llvm::yaml::Output" = type { %"class.llvm::yaml::IO", ptr, i32, %"class.llvm::SmallVector.65", i32, i32, i32, i8, i8, i8, i8, %"class.llvm::StringRef", %"class.llvm::StringRef" }
%"class.llvm::SmallVector.65" = type { %"class.llvm::SmallVectorImpl.66", %"struct.llvm::SmallVectorStorage.69" }
%"class.llvm::SmallVectorImpl.66" = type { %"class.llvm::SmallVectorTemplateBase.67" }
%"class.llvm::SmallVectorTemplateBase.67" = type { %"class.llvm::SmallVectorTemplateCommon.68" }
%"class.llvm::SmallVectorTemplateCommon.68" = type { %"class.llvm::SmallVectorBase" }
%"struct.llvm::SmallVectorStorage.69" = type { [32 x i8] }
%"class.llvm::raw_ostream" = type { ptr, i32, ptr, ptr, ptr, i8, i32 }

@.str.14 = private unnamed_addr constant [2 x i8] c"\0A\00", align 1

; Function Attrs: mustprogress nounwind uwtable
define linkonce_odr hidden noundef ptr @_ZN4llvm25SmallVectorTemplateCommonINS_4yaml6Output7InStateEvE5beginEv(ptr noundef nonnull align 8 dereferenceable(16) %0) #0 comdat align 2 {
  %2 = alloca ptr, align 8
  store ptr %0, ptr %2, align 8
  %3 = load ptr, ptr %2, align 8
  %4 = getelementptr inbounds nuw %"class.llvm::SmallVectorBase", ptr %3, i32 0, i32 0
  %5 = load ptr, ptr %4, align 8
  ret ptr %5
}

; Function Attrs: mustprogress nounwind uwtable
define linkonce_odr hidden noundef ptr @_ZNK4llvm9StringRef4dataEv(ptr noundef nonnull align 8 dereferenceable(16) %0) #0 comdat align 2 {
  %2 = alloca ptr, align 8
  store ptr %0, ptr %2, align 8
  %3 = load ptr, ptr %2, align 8
  %4 = getelementptr inbounds nuw %"class.llvm::StringRef", ptr %3, i32 0, i32 0
  %5 = load ptr, ptr %4, align 8
  ret ptr %5
}

; Function Attrs: mustprogress nounwind uwtable
define linkonce_odr hidden noundef ptr @_ZN4llvm25SmallVectorTemplateCommonINS_4yaml6Output7InStateEvE3endEv(ptr noundef nonnull align 8 dereferenceable(16) %0) #0 comdat align 2 {
  %2 = alloca ptr, align 8
  store ptr %0, ptr %2, align 8
  %3 = load ptr, ptr %2, align 8
  %4 = call noundef ptr @_ZN4llvm25SmallVectorTemplateCommonINS_4yaml6Output7InStateEvE5beginEv(ptr noundef nonnull align 8 dereferenceable(16) %3)
  %5 = call noundef i64 @_ZNK4llvm15SmallVectorBaseIjE4sizeEv(ptr noundef nonnull align 8 dereferenceable(16) %3)
  %6 = getelementptr inbounds i32, ptr %4, i64 %5
  ret ptr %6
}

; Function Attrs: mustprogress nounwind uwtable
define linkonce_odr hidden noundef nonnull align 8 dereferenceable(48) ptr @_ZN4llvm11raw_ostreamlsENS_9StringRefE(ptr noundef nonnull align 8 dereferenceable(48) %0, ptr %1, i64 %2) #0 comdat align 2 {
  %4 = alloca ptr, align 8
  %5 = alloca %"class.llvm::StringRef", align 8
  %6 = alloca ptr, align 8
  %7 = alloca i64, align 8
  %8 = getelementptr inbounds nuw { ptr, i64 }, ptr %5, i32 0, i32 0
  store ptr %1, ptr %8, align 8
  %9 = getelementptr inbounds nuw { ptr, i64 }, ptr %5, i32 0, i32 1
  store i64 %2, ptr %9, align 8
  store ptr %0, ptr %6, align 8
  %10 = load ptr, ptr %6, align 8
  %11 = call noundef i64 @_ZNK4llvm9StringRef4sizeEv(ptr noundef nonnull align 8 dereferenceable(16) %5)
  store i64 %11, ptr %7, align 8
  %12 = load i64, ptr %7, align 8
  %13 = getelementptr inbounds nuw %"class.llvm::raw_ostream", ptr %10, i32 0, i32 3
  %14 = load ptr, ptr %13, align 8
  %15 = getelementptr inbounds nuw %"class.llvm::raw_ostream", ptr %10, i32 0, i32 4
  %16 = load ptr, ptr %15, align 8
  %17 = ptrtoint ptr %14 to i64
  %18 = ptrtoint ptr %16 to i64
  %19 = sub i64 %17, %18
  %20 = icmp ugt i64 %12, %19
  br i1 %20, label %21, label %25

21:                                               ; preds = %3
  %22 = call noundef ptr @_ZNK4llvm9StringRef4dataEv(ptr noundef nonnull align 8 dereferenceable(16) %5)
  %23 = load i64, ptr %7, align 8
  %24 = call noundef nonnull align 8 dereferenceable(48) ptr @_ZN4llvm11raw_ostream5writeEPKcm(ptr noundef nonnull align 8 dereferenceable(48) %10, ptr noundef %22, i64 noundef %23)
  store ptr %24, ptr %4, align 8
  br label %38

25:                                               ; preds = %3
  %26 = load i64, ptr %7, align 8
  %27 = icmp ne i64 %26, 0
  br i1 %27, label %28, label %37

28:                                               ; preds = %25
  %29 = getelementptr inbounds nuw %"class.llvm::raw_ostream", ptr %10, i32 0, i32 4
  %30 = load ptr, ptr %29, align 8
  %31 = call noundef ptr @_ZNK4llvm9StringRef4dataEv(ptr noundef nonnull align 8 dereferenceable(16) %5)
  %32 = load i64, ptr %7, align 8
  call void @llvm.memcpy.p0.p0.i64(ptr align 1 %30, ptr align 1 %31, i64 %32, i1 false)
  %33 = load i64, ptr %7, align 8
  %34 = getelementptr inbounds nuw %"class.llvm::raw_ostream", ptr %10, i32 0, i32 4
  %35 = load ptr, ptr %34, align 8
  %36 = getelementptr inbounds i8, ptr %35, i64 %33
  store ptr %36, ptr %34, align 8
  br label %37

37:                                               ; preds = %28, %25
  store ptr %10, ptr %4, align 8
  br label %38

38:                                               ; preds = %37, %21
  %39 = load ptr, ptr %4, align 8
  ret ptr %39
}

; Function Attrs: mustprogress nounwind uwtable
define linkonce_odr hidden noundef i64 @_ZNK4llvm9StringRef4sizeEv(ptr noundef nonnull align 8 dereferenceable(16) %0) #0 comdat align 2 {
  %2 = alloca ptr, align 8
  store ptr %0, ptr %2, align 8
  %3 = load ptr, ptr %2, align 8
  %4 = getelementptr inbounds nuw %"class.llvm::StringRef", ptr %3, i32 0, i32 1
  %5 = load i64, ptr %4, align 8
  ret i64 %5
}

; Function Attrs: mustprogress nounwind uwtable
define dso_local noundef zeroext i1 @_ZN4llvm4yaml6Output15inFlowMapAnyKeyENS1_7InStateE(i32 noundef %0) #0 align 2 {
  %2 = alloca i32, align 4
  store i32 %0, ptr %2, align 4
  %3 = load i32, ptr %2, align 4
  %4 = icmp eq i32 %3, 6
  br i1 %4, label %8, label %5

5:                                                ; preds = %1
  %6 = load i32, ptr %2, align 4
  %7 = icmp eq i32 %6, 7
  br label %8

8:                                                ; preds = %5, %1
  %9 = phi i1 [ true, %1 ], [ %7, %5 ]
  ret i1 %9
}

; Function Attrs: mustprogress nounwind uwtable
define dso_local noundef zeroext i1 @_ZN4llvm4yaml6Output19inFlowSeqAnyElementENS1_7InStateE(i32 noundef %0) #0 align 2 {
  %2 = alloca i32, align 4
  store i32 %0, ptr %2, align 4
  %3 = load i32, ptr %2, align 4
  %4 = icmp eq i32 %3, 2
  br i1 %4, label %8, label %5

5:                                                ; preds = %1
  %6 = load i32, ptr %2, align 4
  %7 = icmp eq i32 %6, 3
  br label %8

8:                                                ; preds = %5, %1
  %9 = phi i1 [ true, %1 ], [ %7, %5 ]
  ret i1 %9
}

; Function Attrs: mustprogress nounwind uwtable
define linkonce_odr hidden noundef nonnull align 4 dereferenceable(4) ptr @_ZN4llvm25SmallVectorTemplateCommonINS_4yaml6Output7InStateEvE4backEv(ptr noundef nonnull align 8 dereferenceable(16) %0) #0 comdat align 2 {
  %2 = alloca ptr, align 8
  store ptr %0, ptr %2, align 8
  %3 = load ptr, ptr %2, align 8
  %4 = call noundef ptr @_ZN4llvm25SmallVectorTemplateCommonINS_4yaml6Output7InStateEvE3endEv(ptr noundef nonnull align 8 dereferenceable(16) %3)
  %5 = getelementptr inbounds i32, ptr %4, i64 -1
  ret ptr %5
}

; Function Attrs: mustprogress nounwind uwtable
define dso_local void @_ZN4llvm4yaml6Output6outputENS_9StringRefE(ptr noundef nonnull align 8 dereferenceable(128) %0, ptr %1, i64 %2) #0 align 2 {
  %4 = alloca %"class.llvm::StringRef", align 8
  %5 = alloca ptr, align 8
  %6 = alloca %"class.llvm::StringRef", align 8
  %7 = getelementptr inbounds nuw { ptr, i64 }, ptr %4, i32 0, i32 0
  store ptr %1, ptr %7, align 8
  %8 = getelementptr inbounds nuw { ptr, i64 }, ptr %4, i32 0, i32 1
  store i64 %2, ptr %8, align 8
  store ptr %0, ptr %5, align 8
  %9 = load ptr, ptr %5, align 8
  %10 = call noundef i64 @_ZNK4llvm9StringRef4sizeEv(ptr noundef nonnull align 8 dereferenceable(16) %4)
  %11 = getelementptr inbounds nuw %"class.llvm::yaml::Output", ptr %9, i32 0, i32 4
  %12 = load i32, ptr %11, align 8
  %13 = sext i32 %12 to i64
  %14 = add i64 %13, %10
  %15 = trunc i64 %14 to i32
  store i32 %15, ptr %11, align 8
  %16 = getelementptr inbounds nuw %"class.llvm::yaml::Output", ptr %9, i32 0, i32 1
  %17 = load ptr, ptr %16, align 8
  call void @llvm.memcpy.p0.p0.i64(ptr align 8 %6, ptr align 8 %4, i64 16, i1 false)
  %18 = getelementptr inbounds nuw { ptr, i64 }, ptr %6, i32 0, i32 0
  %19 = load ptr, ptr %18, align 8
  %20 = getelementptr inbounds nuw { ptr, i64 }, ptr %6, i32 0, i32 1
  %21 = load i64, ptr %20, align 8
  %22 = call noundef nonnull align 8 dereferenceable(48) ptr @_ZN4llvm11raw_ostreamlsENS_9StringRefE(ptr noundef nonnull align 8 dereferenceable(48) %17, ptr %19, i64 %21)
  ret void
}

; Function Attrs: mustprogress nounwind uwtable
define linkonce_odr hidden noundef i64 @_ZNSt11char_traitsIcE6lengthEPKc(ptr noundef %0) #0 comdat align 2 {
  %2 = alloca ptr, align 8
  store ptr %0, ptr %2, align 8
  %3 = load ptr, ptr %2, align 8
  %4 = call i64 @strlen(ptr noundef %3) #14
  ret i64 %4
}

; Function Attrs: mustprogress nounwind uwtable
define dso_local void @_ZN4llvm4yaml6Output19outputUpToEndOfLineENS_9StringRefE(ptr noundef nonnull align 8 dereferenceable(128) %0, ptr %1, i64 %2) #0 align 2 {
  %4 = alloca %"class.llvm::StringRef", align 8
  %5 = alloca ptr, align 8
  %6 = alloca %"class.llvm::StringRef", align 8
  %7 = alloca %"class.llvm::StringRef", align 8
  %8 = getelementptr inbounds nuw { ptr, i64 }, ptr %4, i32 0, i32 0
  store ptr %1, ptr %8, align 8
  %9 = getelementptr inbounds nuw { ptr, i64 }, ptr %4, i32 0, i32 1
  store i64 %2, ptr %9, align 8
  store ptr %0, ptr %5, align 8
  %10 = load ptr, ptr %5, align 8
  call void @llvm.memcpy.p0.p0.i64(ptr align 8 %6, ptr align 8 %4, i64 16, i1 false)
  %11 = getelementptr inbounds nuw { ptr, i64 }, ptr %6, i32 0, i32 0
  %12 = load ptr, ptr %11, align 8
  %13 = getelementptr inbounds nuw { ptr, i64 }, ptr %6, i32 0, i32 1
  %14 = load i64, ptr %13, align 8
  call void @_ZN4llvm4yaml6Output6outputENS_9StringRefE(ptr noundef nonnull align 8 dereferenceable(128) %10, ptr %12, i64 %14)
  %15 = getelementptr inbounds nuw %"class.llvm::yaml::Output", ptr %10, i32 0, i32 3
  %16 = call noundef zeroext i1 @_ZNK4llvm15SmallVectorBaseIjE5emptyEv(ptr noundef nonnull align 8 dereferenceable(16) %15)
  br i1 %16, label %27, label %17

17:                                               ; preds = %3
  %18 = getelementptr inbounds nuw %"class.llvm::yaml::Output", ptr %10, i32 0, i32 3
  %19 = call noundef nonnull align 4 dereferenceable(4) ptr @_ZN4llvm25SmallVectorTemplateCommonINS_4yaml6Output7InStateEvE4backEv(ptr noundef nonnull align 8 dereferenceable(16) %18)
  %20 = load i32, ptr %19, align 4
  %21 = call noundef zeroext i1 @_ZN4llvm4yaml6Output19inFlowSeqAnyElementENS1_7InStateE(i32 noundef %20)
  br i1 %21, label %29, label %22

22:                                               ; preds = %17
  %23 = getelementptr inbounds nuw %"class.llvm::yaml::Output", ptr %10, i32 0, i32 3
  %24 = call noundef nonnull align 4 dereferenceable(4) ptr @_ZN4llvm25SmallVectorTemplateCommonINS_4yaml6Output7InStateEvE4backEv(ptr noundef nonnull align 8 dereferenceable(16) %23)
  %25 = load i32, ptr %24, align 4
  %26 = call noundef zeroext i1 @_ZN4llvm4yaml6Output15inFlowMapAnyKeyENS1_7InStateE(i32 noundef %25)
  br i1 %26, label %29, label %27

27:                                               ; preds = %22, %3
  call void @_ZN4llvm9StringRefC2EPKc(ptr noundef nonnull align 8 dereferenceable(16) %7, ptr noundef @.str.14)
  %28 = getelementptr inbounds nuw %"class.llvm::yaml::Output", ptr %10, i32 0, i32 11
  call void @llvm.memcpy.p0.p0.i64(ptr align 8 %28, ptr align 8 %7, i64 16, i1 false)
  br label %29

29:                                               ; preds = %27, %22, %17
  ret void
}

; Function Attrs: mustprogress nounwind uwtable
define linkonce_odr hidden void @_ZN4llvm9StringRefC2EPKc(ptr noundef nonnull align 8 dereferenceable(16) %0, ptr noundef %1) unnamed_addr #0 comdat align 2 {
  %3 = alloca ptr, align 8
  %4 = alloca ptr, align 8
  store ptr %0, ptr %3, align 8
  store ptr %1, ptr %4, align 8
  %5 = load ptr, ptr %3, align 8
  %6 = getelementptr inbounds nuw %"class.llvm::StringRef", ptr %5, i32 0, i32 0
  %7 = load ptr, ptr %4, align 8
  store ptr %7, ptr %6, align 8
  %8 = getelementptr inbounds nuw %"class.llvm::StringRef", ptr %5, i32 0, i32 1
  %9 = load ptr, ptr %4, align 8
  %10 = icmp ne ptr %9, null
  br i1 %10, label %11, label %14

11:                                               ; preds = %2
  %12 = load ptr, ptr %4, align 8
  %13 = call noundef i64 @_ZNSt11char_traitsIcE6lengthEPKc(ptr noundef %12)
  br label %15

14:                                               ; preds = %2
  br label %15

15:                                               ; preds = %14, %11
  %16 = phi i64 [ %13, %11 ], [ 0, %14 ]
  store i64 %16, ptr %8, align 8
  ret void
}

; Function Attrs: mustprogress nounwind uwtable
define dso_local noundef zeroext i1 @_ZN4llvm4yaml6Output15matchEnumScalarEPKcb(ptr noundef nonnull align 8 dereferenceable(128) %0, ptr noundef %1, i1 noundef zeroext %2) unnamed_addr #0 align 2 {
  %4 = alloca ptr, align 8
  %5 = alloca ptr, align 8
  %6 = alloca i8, align 1
  %7 = alloca %"class.llvm::StringRef", align 8
  store ptr %0, ptr %4, align 8
  store ptr %1, ptr %5, align 8
  %8 = zext i1 %2 to i8
  store i8 %8, ptr %6, align 1
  %9 = load ptr, ptr %4, align 8
  %10 = load i8, ptr %6, align 1
  %11 = trunc i8 %10 to i1
  br i1 %11, label %12, label %23

12:                                               ; preds = %3
  %13 = getelementptr inbounds nuw %"class.llvm::yaml::Output", ptr %9, i32 0, i32 9
  %14 = load i8, ptr %13, align 2
  %15 = trunc i8 %14 to i1
  br i1 %15, label %23, label %16

16:                                               ; preds = %12
  call void @_ZN4llvm4yaml6Output12newLineCheckEb(ptr noundef nonnull align 8 dereferenceable(128) %9, i1 noundef zeroext false)
  %17 = load ptr, ptr %5, align 8
  call void @_ZN4llvm9StringRefC2EPKc(ptr noundef nonnull align 8 dereferenceable(16) %7, ptr noundef %17)
  %18 = getelementptr inbounds nuw { ptr, i64 }, ptr %7, i32 0, i32 0
  %19 = load ptr, ptr %18, align 8
  %20 = getelementptr inbounds nuw { ptr, i64 }, ptr %7, i32 0, i32 1
  %21 = load i64, ptr %20, align 8
  call void @_ZN4llvm4yaml6Output19outputUpToEndOfLineENS_9StringRefE(ptr noundef nonnull align 8 dereferenceable(128) %9, ptr %19, i64 %21)
  %22 = getelementptr inbounds nuw %"class.llvm::yaml::Output", ptr %9, i32 0, i32 9
  store i8 1, ptr %22, align 2
  br label %23

23:                                               ; preds = %16, %12, %3
  ret i1 false
}