; Function Attrs: mustprogress nounwind uwtable
define dso_local noundef zeroext i1 @_ZN4llvm4yaml6Output15matchEnumScalarEPKcb(ptr noundef nonnull align 8 dereferenceable(128) %0, ptr noundef %1, i1 noundef zeroext %2) unnamed_addr #6 align 2 {
  br i1 %2, label %4, label %52

4:                                                ; preds = %3
  %5 = getelementptr inbounds nuw i8, ptr %0, i64 94
  %6 = load i8, ptr %5, align 2
  %7 = trunc i8 %6 to i1
  br i1 %7, label %52, label %8

8:                                                ; preds = %4
  tail call void @_ZN4llvm4yaml6Output12newLineCheckEb(ptr noundef nonnull align 8 dereferenceable(128) %0, i1 noundef zeroext false)
  %.not.i = icmp eq ptr %1, null
  br i1 %.not.i, label %_ZN4llvm9StringRefC2EPKc.exit, label %9

9:                                                ; preds = %8
  %10 = tail call noundef i64 @strlen(ptr noundef nonnull dereferenceable(1) %1) #32
  br label %_ZN4llvm9StringRefC2EPKc.exit

_ZN4llvm9StringRefC2EPKc.exit:                    ; preds = %8, %9
  %11 = phi i64 [ %10, %9 ], [ 0, %8 ]
  %12 = getelementptr inbounds nuw i8, ptr %0, i64 80
  %13 = load i32, ptr %12, align 8
  %14 = trunc i64 %11 to i32
  %15 = add i32 %13, %14
  store i32 %15, ptr %12, align 8
  %16 = getelementptr inbounds nuw i8, ptr %0, i64 16
  %17 = load ptr, ptr %16, align 8
  %18 = getelementptr inbounds nuw i8, ptr %17, i64 24
  %19 = load ptr, ptr %18, align 8
  %20 = getelementptr inbounds nuw i8, ptr %17, i64 32
  %21 = load ptr, ptr %20, align 8
  %22 = ptrtoint ptr %19 to i64
  %23 = ptrtoint ptr %21 to i64
  %24 = sub i64 %22, %23
  %25 = icmp ugt i64 %11, %24
  br i1 %25, label %26, label %28

26:                                               ; preds = %_ZN4llvm9StringRefC2EPKc.exit
  %27 = tail call noundef nonnull align 8 dereferenceable(48) ptr @_ZN4llvm11raw_ostream5writeEPKcm(ptr noundef nonnull align 8 dereferenceable(48) %17, ptr noundef %1, i64 noundef %11) #32
  br label %_ZN4llvm4yaml6Output6outputENS_9StringRefE.exit.i

28:                                               ; preds = %_ZN4llvm9StringRefC2EPKc.exit
  %.not.i.i.i = icmp eq i64 %11, 0
  br i1 %.not.i.i.i, label %_ZN4llvm4yaml6Output6outputENS_9StringRefE.exit.i, label %29

29:                                               ; preds = %28
  tail call void @llvm.memcpy.p0.p0.i64(ptr align 1 %21, ptr align 1 %1, i64 %11, i1 false)
  %30 = load ptr, ptr %20, align 8
  %31 = getelementptr inbounds i8, ptr %30, i64 %11
  store ptr %31, ptr %20, align 8
  br label %_ZN4llvm4yaml6Output6outputENS_9StringRefE.exit.i

_ZN4llvm4yaml6Output6outputENS_9StringRefE.exit.i: ; preds = %29, %28, %26
  %32 = getelementptr inbounds nuw i8, ptr %0, i64 32
  %33 = tail call noundef zeroext i1 @_ZNK4llvm15SmallVectorBaseIjE5emptyEv(ptr noundef nonnull align 8 dereferenceable(16) %32) #32
  br i1 %33, label %50, label %34

34:                                               ; preds = %_ZN4llvm4yaml6Output6outputENS_9StringRefE.exit.i
  %35 = load ptr, ptr %32, align 8
  %36 = tail call noundef i64 @_ZNK4llvm15SmallVectorBaseIjE4sizeEv(ptr noundef nonnull align 8 dereferenceable(16) %32) #32
  %37 = getelementptr inbounds i32, ptr %35, i64 %36
  %38 = getelementptr inbounds i8, ptr %37, i64 -4
  %39 = load i32, ptr %38, align 4
  %40 = and i32 %39, -2
  %41 = icmp eq i32 %40, 2
  br i1 %41, label %_ZN4llvm4yaml6Output19outputUpToEndOfLineENS_9StringRefE.exit, label %42

42:                                               ; preds = %34
  %43 = load ptr, ptr %32, align 8
  %44 = tail call noundef i64 @_ZNK4llvm15SmallVectorBaseIjE4sizeEv(ptr noundef nonnull align 8 dereferenceable(16) %32) #32
  %45 = getelementptr inbounds i32, ptr %43, i64 %44
  %46 = getelementptr inbounds i8, ptr %45, i64 -4
  %47 = load i32, ptr %46, align 4
  %48 = and i32 %47, -2
  %49 = icmp eq i32 %48, 6
  br i1 %49, label %_ZN4llvm4yaml6Output19outputUpToEndOfLineENS_9StringRefE.exit, label %50

50:                                               ; preds = %42, %_ZN4llvm4yaml6Output6outputENS_9StringRefE.exit.i
  %51 = getelementptr inbounds nuw i8, ptr %0, i64 96
  store ptr @.str.14, ptr %51, align 8
  %.sroa.2.0..sroa_idx.i = getelementptr inbounds nuw i8, ptr %0, i64 104
  store i64 1, ptr %.sroa.2.0..sroa_idx.i, align 8
  br label %_ZN4llvm4yaml6Output19outputUpToEndOfLineENS_9StringRefE.exit

_ZN4llvm4yaml6Output19outputUpToEndOfLineENS_9StringRefE.exit: ; preds = %34, %42, %50
  store i8 1, ptr %5, align 2
  br label %52

52:                                               ; preds = %_ZN4llvm4yaml6Output19outputUpToEndOfLineENS_9StringRefE.exit, %4, %3
  ret i1 false
}